; ModuleID = '27/229.c'
source_filename = "27/229.c"
target datalayout = "e-m:e-p270:32:32-p271:32:32-p272:64:64-i64:64-f80:128-n8:16:32:64-S128"
target triple = "x86_64-pc-linux-gnu"

@.str = private unnamed_addr constant [3 x i8] c"%d\00", align 1
@.str.1 = private unnamed_addr constant [12 x i8] c"%lf %lf %lf\00", align 1
@.str.2 = private unnamed_addr constant [12 x i8] c"x1=x2=%.5f\0A\00", align 1
@.str.3 = private unnamed_addr constant [17 x i8] c"x1=%.5f;x2=%.5f\0A\00", align 1
@.str.4 = private unnamed_addr constant [29 x i8] c"x1=%.5f+%.5fi;x2=%.5f-%.5fi\0A\00", align 1

; Function Attrs: noinline nounwind uwtable
define dso_local i32 @main() #0 {
  %1 = alloca i32, align 4
  %2 = alloca i32, align 4
  %3 = alloca i32, align 4
  %4 = alloca [100 x double], align 16
  %5 = alloca [100 x double], align 16
  %6 = alloca [100 x double], align 16
  %7 = alloca double, align 8
  %8 = alloca double, align 8
  %9 = alloca double, align 8
  store i32 0, i32* %1, align 4
  %10 = call i32 (i8*, ...) @__isoc99_scanf(i8* getelementptr inbounds ([3 x i8], [3 x i8]* @.str, i64 0, i64 0), i32* %2)
  store i32 1, i32* %3, align 4
  br label %11

11:                                               ; preds = %26, %0
  %12 = load i32, i32* %3, align 4
  %13 = load i32, i32* %2, align 4
  %14 = icmp sle i32 %12, %13
  br i1 %14, label %15, label %29

15:                                               ; preds = %11
  %16 = load i32, i32* %3, align 4
  %17 = sext i32 %16 to i64
  %18 = getelementptr inbounds [100 x double], [100 x double]* %4, i64 0, i64 %17
  %19 = load i32, i32* %3, align 4
  %20 = sext i32 %19 to i64
  %21 = getelementptr inbounds [100 x double], [100 x double]* %5, i64 0, i64 %20
  %22 = load i32, i32* %3, align 4
  %23 = sext i32 %22 to i64
  %24 = getelementptr inbounds [100 x double], [100 x double]* %6, i64 0, i64 %23
  %25 = call i32 (i8*, ...) @__isoc99_scanf(i8* getelementptr inbounds ([12 x i8], [12 x i8]* @.str.1, i64 0, i64 0), double* %18, double* %21, double* %24)
  br label %26

26:                                               ; preds = %15
  %27 = load i32, i32* %3, align 4
  %28 = add nsw i32 %27, 1
  store i32 %28, i32* %3, align 4
  br label %11

29:                                               ; preds = %11
  store i32 1, i32* %3, align 4
  br label %30

30:                                               ; preds = %189, %29
  %31 = load i32, i32* %3, align 4
  %32 = load i32, i32* %2, align 4
  %33 = icmp sle i32 %31, %32
  br i1 %33, label %34, label %192

34:                                               ; preds = %30
  %35 = load i32, i32* %3, align 4
  %36 = sext i32 %35 to i64
  %37 = getelementptr inbounds [100 x double], [100 x double]* %5, i64 0, i64 %36
  %38 = load double, double* %37, align 8
  %39 = load i32, i32* %3, align 4
  %40 = sext i32 %39 to i64
  %41 = getelementptr inbounds [100 x double], [100 x double]* %5, i64 0, i64 %40
  %42 = load double, double* %41, align 8
  %43 = fmul double %38, %42
  %44 = load i32, i32* %3, align 4
  %45 = sext i32 %44 to i64
  %46 = getelementptr inbounds [100 x double], [100 x double]* %4, i64 0, i64 %45
  %47 = load double, double* %46, align 8
  %48 = fmul double 4.000000e+00, %47
  %49 = load i32, i32* %3, align 4
  %50 = sext i32 %49 to i64
  %51 = getelementptr inbounds [100 x double], [100 x double]* %6, i64 0, i64 %50
  %52 = load double, double* %51, align 8
  %53 = fmul double %48, %52
  %54 = fsub double %43, %53
  %55 = fcmp oge double %54, 0.000000e+00
  br i1 %55, label %56, label %128

56:                                               ; preds = %34
  %57 = load i32, i32* %3, align 4
  %58 = sext i32 %57 to i64
  %59 = getelementptr inbounds [100 x double], [100 x double]* %5, i64 0, i64 %58
  %60 = load double, double* %59, align 8
  %61 = load i32, i32* %3, align 4
  %62 = sext i32 %61 to i64
  %63 = getelementptr inbounds [100 x double], [100 x double]* %5, i64 0, i64 %62
  %64 = load double, double* %63, align 8
  %65 = fmul double %60, %64
  %66 = load i32, i32* %3, align 4
  %67 = sext i32 %66 to i64
  %68 = getelementptr inbounds [100 x double], [100 x double]* %4, i64 0, i64 %67
  %69 = load double, double* %68, align 8
  %70 = fmul double 4.000000e+00, %69
  %71 = load i32, i32* %3, align 4
  %72 = sext i32 %71 to i64
  %73 = getelementptr inbounds [100 x double], [100 x double]* %6, i64 0, i64 %72
  %74 = load double, double* %73, align 8
  %75 = fmul double %70, %74
  %76 = fsub double %65, %75
  %77 = call double @sqrt(double %76) #3
  store double %77, double* %7, align 8
  %78 = load double, double* %7, align 8
  %79 = fcmp ole double %78, 0x3E7AD7F29ABCAF48
  br i1 %79, label %80, label %97

80:                                               ; preds = %56
  %81 = load double, double* %7, align 8
  %82 = fcmp oge double %81, 0xBE7AD7F29ABCAF48
  br i1 %82, label %83, label %97

83:                                               ; preds = %80
  %84 = load i32, i32* %3, align 4
  %85 = sext i32 %84 to i64
  %86 = getelementptr inbounds [100 x double], [100 x double]* %5, i64 0, i64 %85
  %87 = load double, double* %86, align 8
  %88 = fneg double %87
  %89 = load i32, i32* %3, align 4
  %90 = sext i32 %89 to i64
  %91 = getelementptr inbounds [100 x double], [100 x double]* %4, i64 0, i64 %90
  %92 = load double, double* %91, align 8
  %93 = fmul double 2.000000e+00, %92
  %94 = fdiv double %88, %93
  store double %94, double* %8, align 8
  %95 = load double, double* %8, align 8
  %96 = call i32 (i8*, ...) @printf(i8* getelementptr inbounds ([12 x i8], [12 x i8]* @.str.2, i64 0, i64 0), double %95)
  br label %127

97:                                               ; preds = %80, %56
  %98 = load i32, i32* %3, align 4
  %99 = sext i32 %98 to i64
  %100 = getelementptr inbounds [100 x double], [100 x double]* %5, i64 0, i64 %99
  %101 = load double, double* %100, align 8
  %102 = fneg double %101
  %103 = load double, double* %7, align 8
  %104 = fadd double %102, %103
  %105 = load i32, i32* %3, align 4
  %106 = sext i32 %105 to i64
  %107 = getelementptr inbounds [100 x double], [100 x double]* %4, i64 0, i64 %106
  %108 = load double, double* %107, align 8
  %109 = fmul double 2.000000e+00, %108
  %110 = fdiv double %104, %109
  store double %110, double* %8, align 8
  %111 = load i32, i32* %3, align 4
  %112 = sext i32 %111 to i64
  %113 = getelementptr inbounds [100 x double], [100 x double]* %5, i64 0, i64 %112
  %114 = load double, double* %113, align 8
  %115 = fneg double %114
  %116 = load double, double* %7, align 8
  %117 = fsub double %115, %116
  %118 = load i32, i32* %3, align 4
  %119 = sext i32 %118 to i64
  %120 = getelementptr inbounds [100 x double], [100 x double]* %4, i64 0, i64 %119
  %121 = load double, double* %120, align 8
  %122 = fmul double 2.000000e+00, %121
  %123 = fdiv double %117, %122
  store double %123, double* %9, align 8
  %124 = load double, double* %8, align 8
  %125 = load double, double* %9, align 8
  %126 = call i32 (i8*, ...) @printf(i8* getelementptr inbounds ([17 x i8], [17 x i8]* @.str.3, i64 0, i64 0), double %124, double %125)
  br label %127

127:                                              ; preds = %97, %83
  br label %188

128:                                              ; preds = %34
  %129 = load i32, i32* %3, align 4
  %130 = sext i32 %129 to i64
  %131 = getelementptr inbounds [100 x double], [100 x double]* %5, i64 0, i64 %130
  %132 = load double, double* %131, align 8
  %133 = fneg double %132
  %134 = load i32, i32* %3, align 4
  %135 = sext i32 %134 to i64
  %136 = getelementptr inbounds [100 x double], [100 x double]* %5, i64 0, i64 %135
  %137 = load double, double* %136, align 8
  %138 = fmul double %133, %137
  %139 = load i32, i32* %3, align 4
  %140 = sext i32 %139 to i64
  %141 = getelementptr inbounds [100 x double], [100 x double]* %4, i64 0, i64 %140
  %142 = load double, double* %141, align 8
  %143 = fmul double 4.000000e+00, %142
  %144 = load i32, i32* %3, align 4
  %145 = sext i32 %144 to i64
  %146 = getelementptr inbounds [100 x double], [100 x double]* %6, i64 0, i64 %145
  %147 = load double, double* %146, align 8
  %148 = fmul double %143, %147
  %149 = fadd double %138, %148
  %150 = call double @sqrt(double %149) #3
  store double %150, double* %7, align 8
  %151 = load i32, i32* %3, align 4
  %152 = sext i32 %151 to i64
  %153 = getelementptr inbounds [100 x double], [100 x double]* %5, i64 0, i64 %152
  %154 = load double, double* %153, align 8
  %155 = load i32, i32* %3, align 4
  %156 = sext i32 %155 to i64
  %157 = getelementptr inbounds [100 x double], [100 x double]* %4, i64 0, i64 %156
  %158 = load double, double* %157, align 8
  %159 = fmul double 2.000000e+00, %158
  %160 = fdiv double %154, %159
  %161 = fsub double 0.000000e+00, %160
  %162 = load double, double* %7, align 8
  %163 = load i32, i32* %3, align 4
  %164 = sext i32 %163 to i64
  %165 = getelementptr inbounds [100 x double], [100 x double]* %4, i64 0, i64 %164
  %166 = load double, double* %165, align 8
  %167 = fmul double 2.000000e+00, %166
  %168 = fdiv double %162, %167
  %169 = load i32, i32* %3, align 4
  %170 = sext i32 %169 to i64
  %171 = getelementptr inbounds [100 x double], [100 x double]* %5, i64 0, i64 %170
  %172 = load double, double* %171, align 8
  %173 = load i32, i32* %3, align 4
  %174 = sext i32 %173 to i64
  %175 = getelementptr inbounds [100 x double], [100 x double]* %4, i64 0, i64 %174
  %176 = load double, double* %175, align 8
  %177 = fmul double 2.000000e+00, %176
  %178 = fdiv double %172, %177
  %179 = fsub double 0.000000e+00, %178
  %180 = load double, double* %7, align 8
  %181 = load i32, i32* %3, align 4
  %182 = sext i32 %181 to i64
  %183 = getelementptr inbounds [100 x double], [100 x double]* %4, i64 0, i64 %182
  %184 = load double, double* %183, align 8
  %185 = fmul double 2.000000e+00, %184
  %186 = fdiv double %180, %185
  %187 = call i32 (i8*, ...) @printf(i8* getelementptr inbounds ([29 x i8], [29 x i8]* @.str.4, i64 0, i64 0), double %161, double %168, double %179, double %186)
  br label %188

188:                                              ; preds = %128, %127
  br label %189

189:                                              ; preds = %188
  %190 = load i32, i32* %3, align 4
  %191 = add nsw i32 %190, 1
  store i32 %191, i32* %3, align 4
  br label %30

192:                                              ; preds = %30
  %193 = load i32, i32* %1, align 4
  ret i32 %193
}

declare dso_local i32 @__isoc99_scanf(i8*, ...) #1

; Function Attrs: nounwind
declare dso_local double @sqrt(double) #2

declare dso_local i32 @printf(i8*, ...) #1


!llvm.module.flags = !{!0}
!llvm.ident = !{!1}

!0 = !{i32 1, !"wchar_size", i32 4}
!1 = !{!"clang version 10.0.0-4ubuntu1 "}
